target datalayout = "e-m:e-p270:32:32-p271:32:32-p272:64:64-i64:64-i128:128-f80:128-n8:16:32:64-S128"
target triple = "x86_64-pc-linux-gnu"

; Function Attrs: nounwind uwtable
define hidden i32 @WebPRescalerGetScaledDimensions(i32 noundef %0, i32 noundef %1, ptr noundef %2, ptr noundef %3) #0 {
  %5 = alloca i32, align 4
  %6 = alloca i32, align 4
  %7 = alloca i32, align 4
  %8 = alloca ptr, align 8
  %9 = alloca ptr, align 8
  %10 = alloca i32, align 4
  %11 = alloca i32, align 4
  %12 = alloca i32, align 4
  store i32 %0, ptr %6, align 4
  store i32 %1, ptr %7, align 4
  store ptr %2, ptr %8, align 8
  store ptr %3, ptr %9, align 8
  %13 = load ptr, ptr %8, align 8
  %14 = load i32, ptr %13, align 4
  store i32 %14, ptr %10, align 4
  %15 = load ptr, ptr %9, align 8
  %16 = load i32, ptr %15, align 4
  store i32 %16, ptr %11, align 4
  store i32 1073741823, ptr %12, align 4
  %17 = load i32, ptr %10, align 4
  %18 = icmp eq i32 %17, 0
  br i1 %18, label %19, label %36

19:                                               ; preds = %4
  %20 = load i32, ptr %7, align 4
  %21 = icmp sgt i32 %20, 0
  br i1 %21, label %22, label %36

22:                                               ; preds = %19
  %23 = load i32, ptr %6, align 4
  %24 = sext i32 %23 to i64
  %25 = load i32, ptr %11, align 4
  %26 = sext i32 %25 to i64
  %27 = mul i64 %24, %26
  %28 = load i32, ptr %7, align 4
  %29 = sext i32 %28 to i64
  %30 = add i64 %27, %29
  %31 = sub i64 %30, 1
  %32 = load i32, ptr %7, align 4
  %33 = sext i32 %32 to i64
  %34 = udiv i64 %31, %33
  %35 = trunc i64 %34 to i32
  store i32 %35, ptr %10, align 4
  br label %36

36:                                               ; preds = %22, %19, %4
  %37 = load i32, ptr %11, align 4
  %38 = icmp eq i32 %37, 0
  br i1 %38, label %39, label %56

39:                                               ; preds = %36
  %40 = load i32, ptr %6, align 4
  %41 = icmp sgt i32 %40, 0
  br i1 %41, label %42, label %56

42:                                               ; preds = %39
  %43 = load i32, ptr %7, align 4
  %44 = sext i32 %43 to i64
  %45 = load i32, ptr %10, align 4
  %46 = sext i32 %45 to i64
  %47 = mul i64 %44, %46
  %48 = load i32, ptr %6, align 4
  %49 = sext i32 %48 to i64
  %50 = add i64 %47, %49
  %51 = sub i64 %50, 1
  %52 = load i32, ptr %6, align 4
  %53 = sext i32 %52 to i64
  %54 = udiv i64 %51, %53
  %55 = trunc i64 %54 to i32
  store i32 %55, ptr %11, align 4
  br label %56

56:                                               ; preds = %42, %39, %36
  %57 = load i32, ptr %10, align 4
  %58 = icmp sle i32 %57, 0
  br i1 %58, label %68, label %59

59:                                               ; preds = %56
  %60 = load i32, ptr %11, align 4
  %61 = icmp sle i32 %60, 0
  br i1 %61, label %68, label %62

62:                                               ; preds = %59
  %63 = load i32, ptr %10, align 4
  %64 = icmp sgt i32 %63, 1073741823
  br i1 %64, label %68, label %65

65:                                               ; preds = %62
  %66 = load i32, ptr %11, align 4
  %67 = icmp sgt i32 %66, 1073741823
  br i1 %67, label %68, label %69

68:                                               ; preds = %65, %62, %59, %56
  store i32 0, ptr %5, align 4
  br label %74

69:                                               ; preds = %65
  %70 = load i32, ptr %10, align 4
  %71 = load ptr, ptr %8, align 8
  store i32 %70, ptr %71, align 4
  %72 = load i32, ptr %11, align 4
  %73 = load ptr, ptr %9, align 8
  store i32 %72, ptr %73, align 4
  store i32 1, ptr %5, align 4
  br label %74

74:                                               ; preds = %69, %68
  %75 = load i32, ptr %5, align 4
  ret i32 %75
}