; Function Attrs: mustprogress nofree norecurse nosync nounwind willreturn memory(argmem: readwrite) uwtable
define hidden range(i32 0, 2) i32 @WebPRescalerGetScaledDimensions(i32 noundef %0, i32 noundef %1, ptr nocapture noundef %2, ptr nocapture noundef %3) local_unnamed_addr #3 {
  %5 = load i32, ptr %2, align 4
  %6 = load i32, ptr %3, align 4
  %7 = icmp eq i32 %5, 0
  %8 = icmp sgt i32 %1, 0
  %or.cond = and i1 %8, %7
  br i1 %or.cond, label %9, label %18

9:                                                ; preds = %4
  %10 = sext i32 %0 to i64
  %11 = sext i32 %6 to i64
  %12 = mul nsw i64 %11, %10
  %13 = zext nneg i32 %1 to i64
  %14 = add nsw i64 %13, -1
  %15 = add nsw i64 %14, %12
  %16 = udiv i64 %15, %13
  %17 = trunc i64 %16 to i32
  br label %18

18:                                               ; preds = %9, %4
  %.032 = phi i32 [ %17, %9 ], [ %5, %4 ]
  %19 = icmp eq i32 %6, 0
  %20 = icmp sgt i32 %0, 0
  %or.cond3 = and i1 %20, %19
  br i1 %or.cond3, label %21, label %30

21:                                               ; preds = %18
  %22 = sext i32 %1 to i64
  %23 = sext i32 %.032 to i64
  %24 = mul nsw i64 %23, %22
  %25 = zext nneg i32 %0 to i64
  %26 = add nsw i64 %25, -1
  %27 = add nsw i64 %26, %24
  %28 = udiv i64 %27, %25
  %29 = trunc i64 %28 to i32
  br label %30

30:                                               ; preds = %21, %18
  %.031 = phi i32 [ %29, %21 ], [ %6, %18 ]
  %31 = add i32 %.032, -1073741824
  %32 = icmp ult i32 %31, -1073741823
  %33 = add i32 %.031, -1073741824
  %34 = icmp ult i32 %33, -1073741823
  %or.cond9 = select i1 %32, i1 true, i1 %34
  br i1 %or.cond9, label %36, label %35

35:                                               ; preds = %30
  store i32 %.032, ptr %2, align 4
  store i32 %.031, ptr %3, align 4
  br label %36

36:                                               ; preds = %30, %35
  %.0 = phi i32 [ 1, %35 ], [ 0, %30 ]
  ret i32 %.0
}